target datalayout = "e-m:e-p270:32:32-p271:32:32-p272:64:64-i64:64-i128:128-f80:128-n8:16:32:64-S128"
target triple = "x86_64-pc-linux-gnu"

%class.ContiguousSpace = type { ptr, ptr, ptr }
%"struct.Atomic::CmpxchgImpl" = type { i8 }
%"struct.Atomic::PlatformCmpxchg" = type { i8 }

; Function Attrs: mustprogress nounwind uwtable
define linkonce_odr hidden noundef ptr @_ZNK6Atomic15PlatformCmpxchgILm8EEclIPP12HeapWordImplEET_PVS6_S6_S6_19atomic_memory_order(ptr noundef nonnull align 1 dereferenceable(1) %0, ptr noundef %1, ptr noundef %2, ptr noundef %3, i32 noundef %4) #1 comdat align 2 {
  %6 = alloca ptr, align 8
  %7 = alloca ptr, align 8
  %8 = alloca ptr, align 8
  %9 = alloca ptr, align 8
  %10 = alloca i32, align 4
  store ptr %0, ptr %6, align 8
  store ptr %1, ptr %7, align 8
  store ptr %2, ptr %8, align 8
  store ptr %3, ptr %9, align 8
  store i32 %4, ptr %10, align 4
  %11 = load ptr, ptr %9, align 8
  %12 = load ptr, ptr %8, align 8
  %13 = load ptr, ptr %7, align 8
  %14 = call ptr asm sideeffect "lock cmpxchgq $1,($3)", "={ax},r,{ax},r,~{cc},~{memory},~{dirflag},~{fpsr},~{flags}"(ptr %11, ptr %12, ptr %13) #6, !srcloc !10
  store ptr %14, ptr %9, align 8
  %15 = load ptr, ptr %9, align 8
  ret ptr %15
}

; Function Attrs: mustprogress nounwind uwtable
define linkonce_odr hidden noundef ptr @_ZNK6Atomic11CmpxchgImplIPP12HeapWordImplS3_S3_vEclEPVS3_S3_S3_19atomic_memory_order(ptr noundef nonnull align 1 dereferenceable(1) %0, ptr noundef %1, ptr noundef %2, ptr noundef %3, i32 noundef %4) #1 comdat align 2 {
  %6 = alloca ptr, align 8
  %7 = alloca ptr, align 8
  %8 = alloca ptr, align 8
  %9 = alloca ptr, align 8
  %10 = alloca i32, align 4
  %11 = alloca ptr, align 8
  %12 = alloca ptr, align 8
  %13 = alloca %"struct.Atomic::PlatformCmpxchg", align 1
  store ptr %0, ptr %6, align 8
  store ptr %1, ptr %7, align 8
  store ptr %2, ptr %8, align 8
  store ptr %3, ptr %9, align 8
  store i32 %4, ptr %10, align 4
  %14 = load ptr, ptr %9, align 8
  store ptr %14, ptr %11, align 8
  %15 = load ptr, ptr %8, align 8
  store ptr %15, ptr %12, align 8
  %16 = load ptr, ptr %7, align 8
  %17 = load ptr, ptr %12, align 8
  %18 = load ptr, ptr %11, align 8
  %19 = load i32, ptr %10, align 4
  %20 = call noundef ptr @_ZNK6Atomic15PlatformCmpxchgILm8EEclIPP12HeapWordImplEET_PVS6_S6_S6_19atomic_memory_order(ptr noundef nonnull align 1 dereferenceable(1) %13, ptr noundef %16, ptr noundef %17, ptr noundef %18, i32 noundef %19)
  ret ptr %20
}

; Function Attrs: mustprogress nounwind uwtable
define linkonce_odr hidden noundef i64 @_Z13pointer_deltaPVKvS0_m(ptr noundef %0, ptr noundef %1, i64 noundef %2) #1 comdat {
  %4 = alloca ptr, align 8
  %5 = alloca ptr, align 8
  %6 = alloca i64, align 8
  store ptr %0, ptr %4, align 8
  store ptr %1, ptr %5, align 8
  store i64 %2, ptr %6, align 8
  %7 = load ptr, ptr %4, align 8
  %8 = ptrtoint ptr %7 to i64
  %9 = load ptr, ptr %5, align 8
  %10 = ptrtoint ptr %9 to i64
  %11 = sub i64 %8, %10
  %12 = load i64, ptr %6, align 8
  %13 = udiv i64 %11, %12
  ret i64 %13
}

; Function Attrs: mustprogress nounwind uwtable
define linkonce_odr hidden noundef ptr @_ZN6Atomic7cmpxchgIPP12HeapWordImplS3_S3_EET_PVS4_T0_T1_19atomic_memory_order(ptr noundef %0, ptr noundef %1, ptr noundef %2, i32 noundef %3) #1 comdat align 2 {
  %5 = alloca ptr, align 8
  %6 = alloca ptr, align 8
  %7 = alloca ptr, align 8
  %8 = alloca i32, align 4
  %9 = alloca %"struct.Atomic::CmpxchgImpl", align 1
  store ptr %0, ptr %5, align 8
  store ptr %1, ptr %6, align 8
  store ptr %2, ptr %7, align 8
  store i32 %3, ptr %8, align 4
  %10 = load ptr, ptr %5, align 8
  %11 = load ptr, ptr %6, align 8
  %12 = load ptr, ptr %7, align 8
  %13 = load i32, ptr %8, align 4
  %14 = call noundef ptr @_ZNK6Atomic11CmpxchgImplIPP12HeapWordImplS3_S3_vEclEPVS3_S3_S3_19atomic_memory_order(ptr noundef nonnull align 1 dereferenceable(1) %9, ptr noundef %10, ptr noundef %11, ptr noundef %12, i32 noundef %13)
  ret ptr %14
}

; Function Attrs: mustprogress nounwind uwtable
define linkonce_odr hidden noundef ptr @_ZN15ContiguousSpace8top_addrEv(ptr noundef nonnull align 8 dereferenceable(24) %0) #1 comdat align 2 {
  %2 = alloca ptr, align 8
  store ptr %0, ptr %2, align 8
  %3 = load ptr, ptr %2, align 8
  %4 = getelementptr inbounds %class.ContiguousSpace, ptr %3, i32 0, i32 2
  ret ptr %4
}

; Function Attrs: mustprogress nounwind uwtable
define linkonce_odr hidden noundef i64 @_Z13pointer_deltaPKP12HeapWordImplS2_(ptr noundef %0, ptr noundef %1) #1 comdat {
  %3 = alloca ptr, align 8
  %4 = alloca ptr, align 8
  store ptr %0, ptr %3, align 8
  store ptr %1, ptr %4, align 8
  %5 = load ptr, ptr %3, align 8
  %6 = load ptr, ptr %4, align 8
  %7 = call noundef i64 @_Z13pointer_deltaPVKvS0_m(ptr noundef %5, ptr noundef %6, i64 noundef 8)
  ret i64 %7
}

; Function Attrs: mustprogress nounwind uwtable
define linkonce_odr hidden noundef ptr @_ZNK15ContiguousSpace3endEv(ptr noundef nonnull align 8 dereferenceable(24) %0) #1 comdat align 2 {
  %2 = alloca ptr, align 8
  store ptr %0, ptr %2, align 8
  %3 = load ptr, ptr %2, align 8
  %4 = getelementptr inbounds %class.ContiguousSpace, ptr %3, i32 0, i32 1
  %5 = load ptr, ptr %4, align 8
  ret ptr %5
}

; Function Attrs: mustprogress nounwind uwtable
define linkonce_odr hidden noundef ptr @_ZNK15ContiguousSpace3topEv(ptr noundef nonnull align 8 dereferenceable(24) %0) #1 comdat align 2 {
  %2 = alloca ptr, align 8
  store ptr %0, ptr %2, align 8
  %3 = load ptr, ptr %2, align 8
  %4 = getelementptr inbounds %class.ContiguousSpace, ptr %3, i32 0, i32 2
  %5 = load ptr, ptr %4, align 8
  ret ptr %5
}

; Function Attrs: mustprogress nounwind uwtable
define linkonce_odr hidden noundef ptr @_ZN15ContiguousSpace17par_allocate_implEm(ptr noundef nonnull align 8 dereferenceable(24) %0, i64 noundef %1) #1 comdat align 2 {
  %3 = alloca ptr, align 8
  %4 = alloca ptr, align 8
  %5 = alloca i64, align 8
  %6 = alloca ptr, align 8
  %7 = alloca ptr, align 8
  %8 = alloca ptr, align 8
  store ptr %0, ptr %4, align 8
  store i64 %1, ptr %5, align 8
  %9 = load ptr, ptr %4, align 8
  br label %10

10:                                               ; preds = %33, %2
  %11 = call noundef ptr @_ZNK15ContiguousSpace3topEv(ptr noundef nonnull align 8 dereferenceable(24) %9)
  store ptr %11, ptr %6, align 8
  %12 = call noundef ptr @_ZNK15ContiguousSpace3endEv(ptr noundef nonnull align 8 dereferenceable(24) %9)
  %13 = load ptr, ptr %6, align 8
  %14 = call noundef i64 @_Z13pointer_deltaPKP12HeapWordImplS2_(ptr noundef %12, ptr noundef %13)
  %15 = load i64, ptr %5, align 8
  %16 = icmp uge i64 %14, %15
  br i1 %16, label %17, label %31

17:                                               ; preds = %10
  %18 = load ptr, ptr %6, align 8
  %19 = load i64, ptr %5, align 8
  %20 = getelementptr inbounds ptr, ptr %18, i64 %19
  store ptr %20, ptr %7, align 8
  %21 = call noundef ptr @_ZN15ContiguousSpace8top_addrEv(ptr noundef nonnull align 8 dereferenceable(24) %9)
  %22 = load ptr, ptr %6, align 8
  %23 = load ptr, ptr %7, align 8
  %24 = call noundef ptr @_ZN6Atomic7cmpxchgIPP12HeapWordImplS3_S3_EET_PVS4_T0_T1_19atomic_memory_order(ptr noundef %21, ptr noundef %22, ptr noundef %23, i32 noundef 8)
  store ptr %24, ptr %8, align 8
  %25 = load ptr, ptr %8, align 8
  %26 = load ptr, ptr %6, align 8
  %27 = icmp eq ptr %25, %26
  br i1 %27, label %28, label %30

28:                                               ; preds = %17
  %29 = load ptr, ptr %6, align 8
  store ptr %29, ptr %3, align 8
  br label %35

30:                                               ; preds = %17
  br label %32

31:                                               ; preds = %10
  store ptr null, ptr %3, align 8
  br label %35

32:                                               ; preds = %30
  br label %33

33:                                               ; preds = %32
  br i1 true, label %10, label %34, !llvm.loop !9

34:                                               ; preds = %33
  call void @llvm.trap()
  unreachable

35:                                               ; preds = %31, %28
  %36 = load ptr, ptr %3, align 8
  ret ptr %36
}

; Function Attrs: mustprogress nounwind uwtable
define hidden noundef ptr @_ZN15ContiguousSpace12par_allocateEm(ptr noundef nonnull align 8 dereferenceable(24) %0, i64 noundef %1) #1 align 2 {
  %3 = alloca ptr, align 8
  %4 = alloca i64, align 8
  store ptr %0, ptr %3, align 8
  store i64 %1, ptr %4, align 8
  %5 = load ptr, ptr %3, align 8
  %6 = load i64, ptr %4, align 8
  %7 = call noundef ptr @_ZN15ContiguousSpace17par_allocate_implEm(ptr noundef nonnull align 8 dereferenceable(24) %5, i64 noundef %6)
  ret ptr %7
}