; Function Attrs: mustprogress nounwind uwtable
define hidden noundef ptr @_ZN15ContiguousSpace12par_allocateEm(ptr noundef nonnull align 8 dereferenceable(24) %0, i64 noundef %1) local_unnamed_addr #2 align 2 {
  %3 = getelementptr inbounds i8, ptr %0, i64 16
  %4 = getelementptr inbounds i8, ptr %0, i64 8
  br label %5

5:                                                ; preds = %12, %2
  %6 = load ptr, ptr %3, align 8
  %7 = load ptr, ptr %4, align 8
  %8 = ptrtoint ptr %7 to i64
  %9 = ptrtoint ptr %6 to i64
  %10 = sub i64 %8, %9
  %11 = lshr i64 %10, 3
  %.not.i = icmp ult i64 %11, %1
  br i1 %.not.i, label %_ZN15ContiguousSpace17par_allocate_implEm.exit, label %12

12:                                               ; preds = %5
  %13 = getelementptr inbounds ptr, ptr %6, i64 %1
  %14 = tail call noundef ptr asm sideeffect "lock cmpxchgq $1,($3)", "={ax},r,{ax},r,~{cc},~{memory},~{dirflag},~{fpsr},~{flags}"(ptr %13, ptr %6, ptr nonnull %3) #7, !srcloc !9
  %15 = icmp eq ptr %14, %6
  br i1 %15, label %_ZN15ContiguousSpace17par_allocate_implEm.exit, label %5, !llvm.loop !10

_ZN15ContiguousSpace17par_allocate_implEm.exit:   ; preds = %5, %12
  %.0.i = phi ptr [ %6, %12 ], [ null, %5 ]
  ret ptr %.0.i
}